target datalayout = "e-m:e-p270:32:32-p271:32:32-p272:64:64-i64:64-i128:128-f80:128-n8:16:32:64-S128"
target triple = "x86_64-pc-linux-gnu"

@hf_r3_commandlength = internal global i32 0, align 4
@hf_r3_command = internal global i32 0, align 4
@hf_r3_definetimezone_number = internal global i32 0, align 4
@hf_r3_definetimezone_starttime_hours = internal global i32 0, align 4
@hf_r3_definetimezone_starttime_minutes = internal global i32 0, align 4
@hf_r3_definetimezone_endtime_hours = internal global i32 0, align 4
@hf_r3_definetimezone_endtime_minutes = internal global i32 0, align 4
@hf_r3_definetimezone_daymap = internal global i32 0, align 4
@hf_r3_definetimezone_exceptiongroup = internal global i32 0, align 4
@hf_r3_definetimezone_mode = internal global i32 0, align 4
@hf_r3_definetimezone_calendar = internal global i32 0, align 4
@ett_r3definetimezonestarttime = internal global i32 0, align 4
@ett_r3definetimezoneendtime = internal global i32 0, align 4
@ett_r3definetimezonedaymap = internal global i32 0, align 4
@.str.2177 = private unnamed_addr constant [24 x i8] c"Start HH:MM (%02u:%02u)\00", align 1
@.str.2178 = private unnamed_addr constant [22 x i8] c"End HH:MM (%02u:%02u)\00", align 1
@.str.2179 = private unnamed_addr constant [18 x i8] c"Access Always: %s\00", align 1
@.str.2180 = private unnamed_addr constant [5 x i8] c"True\00", align 1
@.str.2181 = private unnamed_addr constant [6 x i8] c"False\00", align 1

; Function Attrs: null_pointer_is_valid sspstrong uwtable
define internal void @dissect_r3_cmd_definetimezone(ptr noundef %0, i32 noundef %1, i32 noundef %2, ptr noundef %3, ptr noundef %4) #0 {
  %6 = alloca ptr, align 8
  %7 = alloca i32, align 4
  %8 = alloca i32, align 4
  %9 = alloca ptr, align 8
  %10 = alloca ptr, align 8
  %11 = alloca ptr, align 8
  %12 = alloca ptr, align 8
  %13 = alloca i8, align 1
  %14 = alloca ptr, align 8
  %15 = alloca i8, align 1
  %16 = alloca i32, align 4
  store ptr %0, ptr %6, align 8
  store i32 %1, ptr %7, align 4
  store i32 %2, ptr %8, align 4
  store ptr %3, ptr %9, align 8
  store ptr %4, ptr %10, align 8
  call void @llvm.lifetime.start.p0(i64 8, ptr %11) #5
  call void @llvm.lifetime.start.p0(i64 8, ptr %12) #5
  call void @llvm.lifetime.start.p0(i64 1, ptr %13) #5
  call void @llvm.lifetime.start.p0(i64 8, ptr %14) #5
  call void @llvm.lifetime.start.p0(i64 1, ptr %15) #5
  %17 = load ptr, ptr %10, align 8
  %18 = icmp ne ptr %17, null
  br i1 %18, label %20, label %19

19:                                               ; preds = %5
  store i32 1, ptr %16, align 4
  br label %110

20:                                               ; preds = %5
  %21 = load ptr, ptr %6, align 8
  %22 = load i32, ptr %7, align 4
  %23 = add i32 %22, 0
  %24 = call zeroext i8 @tvb_get_uint8(ptr noundef %21, i32 noundef %23)
  store i8 %24, ptr %13, align 1
  %25 = load ptr, ptr %6, align 8
  %26 = load i32, ptr %7, align 4
  %27 = add i32 %26, 2
  %28 = load i8, ptr %13, align 1
  %29 = zext i8 %28 to i32
  %30 = sub i32 %29, 2
  %31 = call ptr @tvb_new_subset_length(ptr noundef %25, i32 noundef %27, i32 noundef %30)
  store ptr %31, ptr %14, align 8
  %32 = load ptr, ptr %10, align 8
  %33 = load i32, ptr @hf_r3_commandlength, align 4
  %34 = load ptr, ptr %6, align 8
  %35 = load i32, ptr %7, align 4
  %36 = add i32 %35, 0
  %37 = call ptr @proto_tree_add_item(ptr noundef %32, i32 noundef %33, ptr noundef %34, i32 noundef %36, i32 noundef 1, i32 noundef -2147483648)
  %38 = load ptr, ptr %10, align 8
  %39 = load i32, ptr @hf_r3_command, align 4
  %40 = load ptr, ptr %6, align 8
  %41 = load i32, ptr %7, align 4
  %42 = add i32 %41, 1
  %43 = call ptr @proto_tree_add_item(ptr noundef %38, i32 noundef %39, ptr noundef %40, i32 noundef %42, i32 noundef 1, i32 noundef -2147483648)
  %44 = load ptr, ptr %10, align 8
  %45 = load i32, ptr @hf_r3_definetimezone_number, align 4
  %46 = load ptr, ptr %14, align 8
  %47 = call ptr @proto_tree_add_item(ptr noundef %44, i32 noundef %45, ptr noundef %46, i32 noundef 0, i32 noundef 1, i32 noundef -2147483648)
  %48 = load ptr, ptr %10, align 8
  %49 = load ptr, ptr %14, align 8
  %50 = load i32, ptr @ett_r3definetimezonestarttime, align 4
  %51 = load ptr, ptr %14, align 8
  %52 = call zeroext i8 @tvb_get_uint8(ptr noundef %51, i32 noundef 1)
  %53 = zext i8 %52 to i32
  %54 = load ptr, ptr %14, align 8
  %55 = call zeroext i8 @tvb_get_uint8(ptr noundef %54, i32 noundef 2)
  %56 = zext i8 %55 to i32
  %57 = call ptr (ptr, ptr, i32, i32, i32, ptr, ptr, ...) @proto_tree_add_subtree_format(ptr noundef %48, ptr noundef %49, i32 noundef 1, i32 noundef 2, i32 noundef %50, ptr noundef null, ptr noundef @.str.2177, i32 noundef %53, i32 noundef %56)
  store ptr %57, ptr %11, align 8
  %58 = load ptr, ptr %11, align 8
  %59 = load i32, ptr @hf_r3_definetimezone_starttime_hours, align 4
  %60 = load ptr, ptr %14, align 8
  %61 = call ptr @proto_tree_add_item(ptr noundef %58, i32 noundef %59, ptr noundef %60, i32 noundef 1, i32 noundef 1, i32 noundef -2147483648)
  %62 = load ptr, ptr %11, align 8
  %63 = load i32, ptr @hf_r3_definetimezone_starttime_minutes, align 4
  %64 = load ptr, ptr %14, align 8
  %65 = call ptr @proto_tree_add_item(ptr noundef %62, i32 noundef %63, ptr noundef %64, i32 noundef 2, i32 noundef 1, i32 noundef -2147483648)
  %66 = load ptr, ptr %10, align 8
  %67 = load ptr, ptr %14, align 8
  %68 = load i32, ptr @ett_r3definetimezoneendtime, align 4
  %69 = load ptr, ptr %14, align 8
  %70 = call zeroext i8 @tvb_get_uint8(ptr noundef %69, i32 noundef 3)
  %71 = zext i8 %70 to i32
  %72 = load ptr, ptr %14, align 8
  %73 = call zeroext i8 @tvb_get_uint8(ptr noundef %72, i32 noundef 4)
  %74 = zext i8 %73 to i32
  %75 = call ptr (ptr, ptr, i32, i32, i32, ptr, ptr, ...) @proto_tree_add_subtree_format(ptr noundef %66, ptr noundef %67, i32 noundef 3, i32 noundef 2, i32 noundef %68, ptr noundef null, ptr noundef @.str.2178, i32 noundef %71, i32 noundef %74)
  store ptr %75, ptr %12, align 8
  %76 = load ptr, ptr %12, align 8
  %77 = load i32, ptr @hf_r3_definetimezone_endtime_hours, align 4
  %78 = load ptr, ptr %14, align 8
  %79 = call ptr @proto_tree_add_item(ptr noundef %76, i32 noundef %77, ptr noundef %78, i32 noundef 3, i32 noundef 1, i32 noundef -2147483648)
  %80 = load ptr, ptr %12, align 8
  %81 = load i32, ptr @hf_r3_definetimezone_endtime_minutes, align 4
  %82 = load ptr, ptr %14, align 8
  %83 = call ptr @proto_tree_add_item(ptr noundef %80, i32 noundef %81, ptr noundef %82, i32 noundef 4, i32 noundef 1, i32 noundef -2147483648)
  %84 = load ptr, ptr %10, align 8
  %85 = load ptr, ptr %14, align 8
  %86 = load i32, ptr @hf_r3_definetimezone_daymap, align 4
  %87 = load i32, ptr @ett_r3definetimezonedaymap, align 4
  %88 = call ptr @proto_tree_add_bitmask(ptr noundef %84, ptr noundef %85, i32 noundef 5, i32 noundef %86, i32 noundef %87, ptr noundef @r3_definetimezone_daymap, i32 noundef 0)
  %89 = load ptr, ptr %10, align 8
  %90 = load i32, ptr @hf_r3_definetimezone_exceptiongroup, align 4
  %91 = load ptr, ptr %14, align 8
  %92 = call ptr @proto_tree_add_item(ptr noundef %89, i32 noundef %90, ptr noundef %91, i32 noundef 6, i32 noundef 1, i32 noundef -2147483648)
  %93 = load ptr, ptr %10, align 8
  %94 = load i32, ptr @hf_r3_definetimezone_mode, align 4
  %95 = load ptr, ptr %14, align 8
  %96 = load ptr, ptr %14, align 8
  %97 = call zeroext i8 @tvb_get_uint8(ptr noundef %96, i32 noundef 7)
  store i8 %97, ptr %15, align 1
  %98 = zext i8 %97 to i32
  %99 = and i32 %98, 15
  %100 = call ptr @proto_tree_add_uint(ptr noundef %93, i32 noundef %94, ptr noundef %95, i32 noundef 7, i32 noundef 1, i32 noundef %99)
  %101 = load ptr, ptr %10, align 8
  %102 = load i32, ptr @hf_r3_definetimezone_calendar, align 4
  %103 = load ptr, ptr %14, align 8
  %104 = load i8, ptr %15, align 1
  %105 = zext i8 %104 to i32
  %106 = and i32 %105, 16
  %107 = icmp ne i32 %106, 0
  %108 = select i1 %107, ptr @.str.2180, ptr @.str.2181
  %109 = call ptr (ptr, i32, ptr, i32, i32, ptr, ...) @proto_tree_add_none_format(ptr noundef %101, i32 noundef %102, ptr noundef %103, i32 noundef 7, i32 noundef 1, ptr noundef @.str.2179, ptr noundef %108)
  store i32 0, ptr %16, align 4
  br label %110

110:                                              ; preds = %20, %19
  call void @llvm.lifetime.end.p0(i64 1, ptr %15) #5
  call void @llvm.lifetime.end.p0(i64 8, ptr %14) #5
  call void @llvm.lifetime.end.p0(i64 1, ptr %13) #5
  call void @llvm.lifetime.end.p0(i64 8, ptr %12) #5
  call void @llvm.lifetime.end.p0(i64 8, ptr %11) #5
  %111 = load i32, ptr %16, align 4
  switch i32 %111, label %113 [
    i32 0, label %112
    i32 1, label %112
  ]

112:                                              ; preds = %110, %110
  ret void

113:                                              ; preds = %110
  unreachable
}