; Function Attrs: null_pointer_is_valid sspstrong uwtable
define internal void @dissect_r3_cmd_definetimezone(ptr noundef %0, i32 noundef %1, i32 %2, ptr readnone captures(none) %3, ptr noundef %4) #0 {
  %.not = icmp eq ptr %4, null
  br i1 %.not, label %53, label %6

6:                                                ; preds = %5
  %7 = tail call zeroext i8 @tvb_get_uint8(ptr noundef %0, i32 noundef %1)
  %8 = add i32 %1, 2
  %9 = zext i8 %7 to i32
  %10 = add nsw i32 %9, -2
  %11 = tail call ptr @tvb_new_subset_length(ptr noundef %0, i32 noundef %8, i32 noundef %10)
  %12 = load i32, ptr @hf_r3_commandlength, align 4
  %13 = tail call ptr @proto_tree_add_item(ptr noundef nonnull %4, i32 noundef %12, ptr noundef %0, i32 noundef %1, i32 noundef 1, i32 noundef -2147483648)
  %14 = load i32, ptr @hf_r3_command, align 4
  %15 = add i32 %1, 1
  %16 = tail call ptr @proto_tree_add_item(ptr noundef nonnull %4, i32 noundef %14, ptr noundef %0, i32 noundef %15, i32 noundef 1, i32 noundef -2147483648)
  %17 = load i32, ptr @hf_r3_definetimezone_number, align 4
  %18 = tail call ptr @proto_tree_add_item(ptr noundef nonnull %4, i32 noundef %17, ptr noundef %11, i32 noundef 0, i32 noundef 1, i32 noundef -2147483648)
  %19 = load i32, ptr @ett_r3definetimezonestarttime, align 4
  %20 = tail call zeroext i8 @tvb_get_uint8(ptr noundef %11, i32 noundef 1)
  %21 = zext i8 %20 to i32
  %22 = tail call zeroext i8 @tvb_get_uint8(ptr noundef %11, i32 noundef 2)
  %23 = zext i8 %22 to i32
  %24 = tail call ptr (ptr, ptr, i32, i32, i32, ptr, ptr, ...) @proto_tree_add_subtree_format(ptr noundef nonnull %4, ptr noundef %11, i32 noundef 1, i32 noundef 2, i32 noundef %19, ptr noundef null, ptr noundef nonnull @.str.2177, i32 noundef %21, i32 noundef %23)
  %25 = load i32, ptr @hf_r3_definetimezone_starttime_hours, align 4
  %26 = tail call ptr @proto_tree_add_item(ptr noundef %24, i32 noundef %25, ptr noundef %11, i32 noundef 1, i32 noundef 1, i32 noundef -2147483648)
  %27 = load i32, ptr @hf_r3_definetimezone_starttime_minutes, align 4
  %28 = tail call ptr @proto_tree_add_item(ptr noundef %24, i32 noundef %27, ptr noundef %11, i32 noundef 2, i32 noundef 1, i32 noundef -2147483648)
  %29 = load i32, ptr @ett_r3definetimezoneendtime, align 4
  %30 = tail call zeroext i8 @tvb_get_uint8(ptr noundef %11, i32 noundef 3)
  %31 = zext i8 %30 to i32
  %32 = tail call zeroext i8 @tvb_get_uint8(ptr noundef %11, i32 noundef 4)
  %33 = zext i8 %32 to i32
  %34 = tail call ptr (ptr, ptr, i32, i32, i32, ptr, ptr, ...) @proto_tree_add_subtree_format(ptr noundef nonnull %4, ptr noundef %11, i32 noundef 3, i32 noundef 2, i32 noundef %29, ptr noundef null, ptr noundef nonnull @.str.2178, i32 noundef %31, i32 noundef %33)
  %35 = load i32, ptr @hf_r3_definetimezone_endtime_hours, align 4
  %36 = tail call ptr @proto_tree_add_item(ptr noundef %34, i32 noundef %35, ptr noundef %11, i32 noundef 3, i32 noundef 1, i32 noundef -2147483648)
  %37 = load i32, ptr @hf_r3_definetimezone_endtime_minutes, align 4
  %38 = tail call ptr @proto_tree_add_item(ptr noundef %34, i32 noundef %37, ptr noundef %11, i32 noundef 4, i32 noundef 1, i32 noundef -2147483648)
  %39 = load i32, ptr @hf_r3_definetimezone_daymap, align 4
  %40 = load i32, ptr @ett_r3definetimezonedaymap, align 4
  %41 = tail call ptr @proto_tree_add_bitmask(ptr noundef nonnull %4, ptr noundef %11, i32 noundef 5, i32 noundef %39, i32 noundef %40, ptr noundef nonnull @r3_definetimezone_daymap, i32 noundef 0)
  %42 = load i32, ptr @hf_r3_definetimezone_exceptiongroup, align 4
  %43 = tail call ptr @proto_tree_add_item(ptr noundef nonnull %4, i32 noundef %42, ptr noundef %11, i32 noundef 6, i32 noundef 1, i32 noundef -2147483648)
  %44 = load i32, ptr @hf_r3_definetimezone_mode, align 4
  %45 = tail call zeroext i8 @tvb_get_uint8(ptr noundef %11, i32 noundef 7)
  %46 = zext i8 %45 to i32
  %47 = and i32 %46, 15
  %48 = tail call ptr @proto_tree_add_uint(ptr noundef nonnull %4, i32 noundef %44, ptr noundef %11, i32 noundef 7, i32 noundef 1, i32 noundef %47)
  %49 = load i32, ptr @hf_r3_definetimezone_calendar, align 4
  %50 = and i32 %46, 16
  %.not39 = icmp eq i32 %50, 0
  %51 = select i1 %.not39, ptr @.str.2181, ptr @.str.2180
  %52 = tail call ptr (ptr, i32, ptr, i32, i32, ptr, ...) @proto_tree_add_none_format(ptr noundef nonnull %4, i32 noundef %49, ptr noundef %11, i32 noundef 7, i32 noundef 1, ptr noundef nonnull @.str.2179, ptr noundef nonnull %51)
  br label %53

53:                                               ; preds = %5, %6
  ret void
}